target datalayout = "e-m:e-p270:32:32-p271:32:32-p272:64:64-i64:64-i128:128-f80:128-n8:16:32:64-S128"
target triple = "x86_64-pc-linux-gnu"

%struct.ossl_cc_newreno_st = type { ptr, ptr, i64, i64, i32, i32, i32, i64, i64, i64, i64, i64, %struct.OSSL_TIME, i32, %struct.OSSL_TIME, i32, ptr, ptr, ptr, ptr, ptr }
%struct.OSSL_TIME = type { i64 }
%struct.ossl_cc_ack_info_st = type { %struct.OSSL_TIME, i64 }

; Function Attrs: inlinehint nounwind uwtable
define internal i32 @ossl_time_compare(i64 %0, i64 %1) #3 {
  %3 = alloca i32, align 4
  %4 = alloca %struct.OSSL_TIME, align 8
  %5 = alloca %struct.OSSL_TIME, align 8
  %6 = getelementptr inbounds nuw %struct.OSSL_TIME, ptr %4, i32 0, i32 0
  store i64 %0, ptr %6, align 8
  %7 = getelementptr inbounds nuw %struct.OSSL_TIME, ptr %5, i32 0, i32 0
  store i64 %1, ptr %7, align 8
  %8 = getelementptr inbounds nuw %struct.OSSL_TIME, ptr %4, i32 0, i32 0
  %9 = load i64, ptr %8, align 8, !tbaa !53
  %10 = getelementptr inbounds nuw %struct.OSSL_TIME, ptr %5, i32 0, i32 0
  %11 = load i64, ptr %10, align 8, !tbaa !53
  %12 = icmp ugt i64 %9, %11
  br i1 %12, label %13, label %14

13:                                               ; preds = %2
  store i32 1, ptr %3, align 4
  br label %22

14:                                               ; preds = %2
  %15 = getelementptr inbounds nuw %struct.OSSL_TIME, ptr %4, i32 0, i32 0
  %16 = load i64, ptr %15, align 8, !tbaa !53
  %17 = getelementptr inbounds nuw %struct.OSSL_TIME, ptr %5, i32 0, i32 0
  %18 = load i64, ptr %17, align 8, !tbaa !53
  %19 = icmp ult i64 %16, %18
  br i1 %19, label %20, label %21

20:                                               ; preds = %14
  store i32 -1, ptr %3, align 4
  br label %22

21:                                               ; preds = %14
  store i32 0, ptr %3, align 4
  br label %22

22:                                               ; preds = %21, %20, %13
  %23 = load i32, ptr %3, align 4
  ret i32 %23
}

; Function Attrs: nounwind uwtable
define internal void @newreno_update_diag(ptr noundef %0) #0 {
  %2 = alloca ptr, align 8
  store ptr %0, ptr %2, align 8, !tbaa !7
  %3 = load ptr, ptr %2, align 8, !tbaa !7
  %4 = getelementptr inbounds nuw %struct.ossl_cc_newreno_st, ptr %3, i32 0, i32 16
  %5 = load ptr, ptr %4, align 8, !tbaa !34
  %6 = icmp ne ptr %5, null
  br i1 %6, label %7, label %14

7:                                                ; preds = %1
  %8 = load ptr, ptr %2, align 8, !tbaa !7
  %9 = getelementptr inbounds nuw %struct.ossl_cc_newreno_st, ptr %8, i32 0, i32 7
  %10 = load i64, ptr %9, align 8, !tbaa !44
  %11 = load ptr, ptr %2, align 8, !tbaa !7
  %12 = getelementptr inbounds nuw %struct.ossl_cc_newreno_st, ptr %11, i32 0, i32 16
  %13 = load ptr, ptr %12, align 8, !tbaa !34
  store i64 %10, ptr %13, align 8, !tbaa !28
  br label %14

14:                                               ; preds = %7, %1
  %15 = load ptr, ptr %2, align 8, !tbaa !7
  %16 = getelementptr inbounds nuw %struct.ossl_cc_newreno_st, ptr %15, i32 0, i32 17
  %17 = load ptr, ptr %16, align 8, !tbaa !35
  %18 = icmp ne ptr %17, null
  br i1 %18, label %19, label %26

19:                                               ; preds = %14
  %20 = load ptr, ptr %2, align 8, !tbaa !7
  %21 = getelementptr inbounds nuw %struct.ossl_cc_newreno_st, ptr %20, i32 0, i32 9
  %22 = load i64, ptr %21, align 8, !tbaa !23
  %23 = load ptr, ptr %2, align 8, !tbaa !7
  %24 = getelementptr inbounds nuw %struct.ossl_cc_newreno_st, ptr %23, i32 0, i32 17
  %25 = load ptr, ptr %24, align 8, !tbaa !35
  store i64 %22, ptr %25, align 8, !tbaa !28
  br label %26

26:                                               ; preds = %19, %14
  %27 = load ptr, ptr %2, align 8, !tbaa !7
  %28 = getelementptr inbounds nuw %struct.ossl_cc_newreno_st, ptr %27, i32 0, i32 18
  %29 = load ptr, ptr %28, align 8, !tbaa !36
  %30 = icmp ne ptr %29, null
  br i1 %30, label %31, label %38

31:                                               ; preds = %26
  %32 = load ptr, ptr %2, align 8, !tbaa !7
  %33 = getelementptr inbounds nuw %struct.ossl_cc_newreno_st, ptr %32, i32 0, i32 3
  %34 = load i64, ptr %33, align 8, !tbaa !52
  %35 = load ptr, ptr %2, align 8, !tbaa !7
  %36 = getelementptr inbounds nuw %struct.ossl_cc_newreno_st, ptr %35, i32 0, i32 18
  %37 = load ptr, ptr %36, align 8, !tbaa !36
  store i64 %34, ptr %37, align 8, !tbaa !28
  br label %38

38:                                               ; preds = %31, %26
  %39 = load ptr, ptr %2, align 8, !tbaa !7
  %40 = getelementptr inbounds nuw %struct.ossl_cc_newreno_st, ptr %39, i32 0, i32 19
  %41 = load ptr, ptr %40, align 8, !tbaa !37
  %42 = icmp ne ptr %41, null
  br i1 %42, label %43, label %50

43:                                               ; preds = %38
  %44 = load ptr, ptr %2, align 8, !tbaa !7
  %45 = getelementptr inbounds nuw %struct.ossl_cc_newreno_st, ptr %44, i32 0, i32 8
  %46 = load i64, ptr %45, align 8, !tbaa !24
  %47 = load ptr, ptr %2, align 8, !tbaa !7
  %48 = getelementptr inbounds nuw %struct.ossl_cc_newreno_st, ptr %47, i32 0, i32 19
  %49 = load ptr, ptr %48, align 8, !tbaa !37
  store i64 %46, ptr %49, align 8, !tbaa !28
  br label %50

50:                                               ; preds = %43, %38
  %51 = load ptr, ptr %2, align 8, !tbaa !7
  %52 = getelementptr inbounds nuw %struct.ossl_cc_newreno_st, ptr %51, i32 0, i32 20
  %53 = load ptr, ptr %52, align 8, !tbaa !39
  %54 = icmp ne ptr %53, null
  br i1 %54, label %55, label %82

55:                                               ; preds = %50
  %56 = load ptr, ptr %2, align 8, !tbaa !7
  %57 = getelementptr inbounds nuw %struct.ossl_cc_newreno_st, ptr %56, i32 0, i32 15
  %58 = load i32, ptr %57, align 8, !tbaa !30
  %59 = icmp ne i32 %58, 0
  br i1 %59, label %60, label %64

60:                                               ; preds = %55
  %61 = load ptr, ptr %2, align 8, !tbaa !7
  %62 = getelementptr inbounds nuw %struct.ossl_cc_newreno_st, ptr %61, i32 0, i32 20
  %63 = load ptr, ptr %62, align 8, !tbaa !39
  store i32 82, ptr %63, align 4, !tbaa !49
  br label %81

64:                                               ; preds = %55
  %65 = load ptr, ptr %2, align 8, !tbaa !7
  %66 = getelementptr inbounds nuw %struct.ossl_cc_newreno_st, ptr %65, i32 0, i32 9
  %67 = load i64, ptr %66, align 8, !tbaa !23
  %68 = load ptr, ptr %2, align 8, !tbaa !7
  %69 = getelementptr inbounds nuw %struct.ossl_cc_newreno_st, ptr %68, i32 0, i32 10
  %70 = load i64, ptr %69, align 8, !tbaa !26
  %71 = icmp ult i64 %67, %70
  br i1 %71, label %72, label %76

72:                                               ; preds = %64
  %73 = load ptr, ptr %2, align 8, !tbaa !7
  %74 = getelementptr inbounds nuw %struct.ossl_cc_newreno_st, ptr %73, i32 0, i32 20
  %75 = load ptr, ptr %74, align 8, !tbaa !39
  store i32 83, ptr %75, align 4, !tbaa !49
  br label %80

76:                                               ; preds = %64
  %77 = load ptr, ptr %2, align 8, !tbaa !7
  %78 = getelementptr inbounds nuw %struct.ossl_cc_newreno_st, ptr %77, i32 0, i32 20
  %79 = load ptr, ptr %78, align 8, !tbaa !39
  store i32 65, ptr %79, align 4, !tbaa !49
  br label %80

80:                                               ; preds = %76, %72
  br label %81

81:                                               ; preds = %80, %60
  br label %82

82:                                               ; preds = %81, %50
  ret void
}

; Function Attrs: nounwind uwtable
define internal i32 @newreno_in_cong_recovery(ptr noundef %0, i64 %1) #0 {
  %3 = alloca %struct.OSSL_TIME, align 8
  %4 = alloca ptr, align 8
  %5 = getelementptr inbounds nuw %struct.OSSL_TIME, ptr %3, i32 0, i32 0
  store i64 %1, ptr %5, align 8
  store ptr %0, ptr %4, align 8, !tbaa !7
  %6 = load ptr, ptr %4, align 8, !tbaa !7
  %7 = getelementptr inbounds nuw %struct.ossl_cc_newreno_st, ptr %6, i32 0, i32 12
  %8 = getelementptr inbounds nuw %struct.OSSL_TIME, ptr %3, i32 0, i32 0
  %9 = load i64, ptr %8, align 8
  %10 = getelementptr inbounds nuw %struct.OSSL_TIME, ptr %7, i32 0, i32 0
  %11 = load i64, ptr %10, align 8
  %12 = call i32 @ossl_time_compare(i64 %9, i64 %11)
  %13 = icmp sle i32 %12, 0
  %14 = zext i1 %13 to i32
  ret i32 %14
}

; Function Attrs: nounwind uwtable
define internal i32 @newreno_is_cong_limited(ptr noundef %0) #0 {
  %2 = alloca i32, align 4
  %3 = alloca ptr, align 8
  %4 = alloca i64, align 8
  %5 = alloca i32, align 4
  store ptr %0, ptr %3, align 8, !tbaa !7
  call void @llvm.lifetime.start.p0(i64 8, ptr %4) #6
  %6 = load ptr, ptr %3, align 8, !tbaa !7
  %7 = getelementptr inbounds nuw %struct.ossl_cc_newreno_st, ptr %6, i32 0, i32 8
  %8 = load i64, ptr %7, align 8, !tbaa !24
  %9 = load ptr, ptr %3, align 8, !tbaa !7
  %10 = getelementptr inbounds nuw %struct.ossl_cc_newreno_st, ptr %9, i32 0, i32 9
  %11 = load i64, ptr %10, align 8, !tbaa !23
  %12 = icmp uge i64 %8, %11
  br i1 %12, label %13, label %14

13:                                               ; preds = %1
  store i32 1, ptr %2, align 4
  store i32 1, ptr %5, align 4
  br label %46

14:                                               ; preds = %1
  %15 = load ptr, ptr %3, align 8, !tbaa !7
  %16 = getelementptr inbounds nuw %struct.ossl_cc_newreno_st, ptr %15, i32 0, i32 9
  %17 = load i64, ptr %16, align 8, !tbaa !23
  %18 = load ptr, ptr %3, align 8, !tbaa !7
  %19 = getelementptr inbounds nuw %struct.ossl_cc_newreno_st, ptr %18, i32 0, i32 8
  %20 = load i64, ptr %19, align 8, !tbaa !24
  %21 = sub i64 %17, %20
  store i64 %21, ptr %4, align 8, !tbaa !28
  %22 = load ptr, ptr %3, align 8, !tbaa !7
  %23 = getelementptr inbounds nuw %struct.ossl_cc_newreno_st, ptr %22, i32 0, i32 9
  %24 = load i64, ptr %23, align 8, !tbaa !23
  %25 = load ptr, ptr %3, align 8, !tbaa !7
  %26 = getelementptr inbounds nuw %struct.ossl_cc_newreno_st, ptr %25, i32 0, i32 10
  %27 = load i64, ptr %26, align 8, !tbaa !26
  %28 = icmp ult i64 %24, %27
  br i1 %28, label %29, label %36

29:                                               ; preds = %14
  %30 = load i64, ptr %4, align 8, !tbaa !28
  %31 = load ptr, ptr %3, align 8, !tbaa !7
  %32 = getelementptr inbounds nuw %struct.ossl_cc_newreno_st, ptr %31, i32 0, i32 9
  %33 = load i64, ptr %32, align 8, !tbaa !23
  %34 = udiv i64 %33, 2
  %35 = icmp ule i64 %30, %34
  br i1 %35, label %43, label %36

36:                                               ; preds = %29, %14
  %37 = load i64, ptr %4, align 8, !tbaa !28
  %38 = load ptr, ptr %3, align 8, !tbaa !7
  %39 = getelementptr inbounds nuw %struct.ossl_cc_newreno_st, ptr %38, i32 0, i32 7
  %40 = load i64, ptr %39, align 8, !tbaa !44
  %41 = mul i64 3, %40
  %42 = icmp ule i64 %37, %41
  br label %43

43:                                               ; preds = %36, %29
  %44 = phi i1 [ true, %29 ], [ %42, %36 ]
  %45 = zext i1 %44 to i32
  store i32 %45, ptr %2, align 4
  store i32 1, ptr %5, align 4
  br label %46

46:                                               ; preds = %43, %13
  call void @llvm.lifetime.end.p0(i64 8, ptr %4) #6
  %47 = load i32, ptr %2, align 4
  ret i32 %47
}

; Function Attrs: nounwind uwtable
define internal i32 @newreno_on_data_acked(ptr noundef %0, ptr noundef %1) #0 {
  %3 = alloca ptr, align 8
  %4 = alloca ptr, align 8
  %5 = alloca ptr, align 8
  store ptr %0, ptr %3, align 8, !tbaa !17
  store ptr %1, ptr %4, align 8, !tbaa !40
  call void @llvm.lifetime.start.p0(i64 8, ptr %5) #6
  %6 = load ptr, ptr %3, align 8, !tbaa !17
  store ptr %6, ptr %5, align 8, !tbaa !7
  %7 = load ptr, ptr %4, align 8, !tbaa !40
  %8 = getelementptr inbounds nuw %struct.ossl_cc_ack_info_st, ptr %7, i32 0, i32 1
  %9 = load i64, ptr %8, align 8, !tbaa !42
  %10 = load ptr, ptr %5, align 8, !tbaa !7
  %11 = getelementptr inbounds nuw %struct.ossl_cc_newreno_st, ptr %10, i32 0, i32 8
  %12 = load i64, ptr %11, align 8, !tbaa !24
  %13 = sub i64 %12, %9
  store i64 %13, ptr %11, align 8, !tbaa !24
  %14 = load ptr, ptr %5, align 8, !tbaa !7
  %15 = call i32 @newreno_is_cong_limited(ptr noundef %14)
  %16 = icmp ne i32 %15, 0
  br i1 %16, label %18, label %17

17:                                               ; preds = %2
  br label %80

18:                                               ; preds = %2
  %19 = load ptr, ptr %5, align 8, !tbaa !7
  %20 = load ptr, ptr %4, align 8, !tbaa !40
  %21 = getelementptr inbounds nuw %struct.ossl_cc_ack_info_st, ptr %20, i32 0, i32 0
  %22 = getelementptr inbounds nuw %struct.OSSL_TIME, ptr %21, i32 0, i32 0
  %23 = load i64, ptr %22, align 8
  %24 = call i32 @newreno_in_cong_recovery(ptr noundef %19, i64 %23)
  %25 = icmp ne i32 %24, 0
  br i1 %25, label %26, label %27

26:                                               ; preds = %18
  br label %79

27:                                               ; preds = %18
  %28 = load ptr, ptr %5, align 8, !tbaa !7
  %29 = getelementptr inbounds nuw %struct.ossl_cc_newreno_st, ptr %28, i32 0, i32 9
  %30 = load i64, ptr %29, align 8, !tbaa !23
  %31 = load ptr, ptr %5, align 8, !tbaa !7
  %32 = getelementptr inbounds nuw %struct.ossl_cc_newreno_st, ptr %31, i32 0, i32 10
  %33 = load i64, ptr %32, align 8, !tbaa !26
  %34 = icmp ult i64 %30, %33
  br i1 %34, label %35, label %45

35:                                               ; preds = %27
  %36 = load ptr, ptr %4, align 8, !tbaa !40
  %37 = getelementptr inbounds nuw %struct.ossl_cc_ack_info_st, ptr %36, i32 0, i32 1
  %38 = load i64, ptr %37, align 8, !tbaa !42
  %39 = load ptr, ptr %5, align 8, !tbaa !7
  %40 = getelementptr inbounds nuw %struct.ossl_cc_newreno_st, ptr %39, i32 0, i32 9
  %41 = load i64, ptr %40, align 8, !tbaa !23
  %42 = add i64 %41, %38
  store i64 %42, ptr %40, align 8, !tbaa !23
  %43 = load ptr, ptr %5, align 8, !tbaa !7
  %44 = getelementptr inbounds nuw %struct.ossl_cc_newreno_st, ptr %43, i32 0, i32 15
  store i32 0, ptr %44, align 8, !tbaa !30
  br label %78

45:                                               ; preds = %27
  %46 = load ptr, ptr %4, align 8, !tbaa !40
  %47 = getelementptr inbounds nuw %struct.ossl_cc_ack_info_st, ptr %46, i32 0, i32 1
  %48 = load i64, ptr %47, align 8, !tbaa !42
  %49 = load ptr, ptr %5, align 8, !tbaa !7
  %50 = getelementptr inbounds nuw %struct.ossl_cc_newreno_st, ptr %49, i32 0, i32 11
  %51 = load i64, ptr %50, align 8, !tbaa !25
  %52 = add i64 %51, %48
  store i64 %52, ptr %50, align 8, !tbaa !25
  %53 = load ptr, ptr %5, align 8, !tbaa !7
  %54 = getelementptr inbounds nuw %struct.ossl_cc_newreno_st, ptr %53, i32 0, i32 11
  %55 = load i64, ptr %54, align 8, !tbaa !25
  %56 = load ptr, ptr %5, align 8, !tbaa !7
  %57 = getelementptr inbounds nuw %struct.ossl_cc_newreno_st, ptr %56, i32 0, i32 9
  %58 = load i64, ptr %57, align 8, !tbaa !23
  %59 = icmp uge i64 %55, %58
  br i1 %59, label %60, label %75

60:                                               ; preds = %45
  %61 = load ptr, ptr %5, align 8, !tbaa !7
  %62 = getelementptr inbounds nuw %struct.ossl_cc_newreno_st, ptr %61, i32 0, i32 9
  %63 = load i64, ptr %62, align 8, !tbaa !23
  %64 = load ptr, ptr %5, align 8, !tbaa !7
  %65 = getelementptr inbounds nuw %struct.ossl_cc_newreno_st, ptr %64, i32 0, i32 11
  %66 = load i64, ptr %65, align 8, !tbaa !25
  %67 = sub i64 %66, %63
  store i64 %67, ptr %65, align 8, !tbaa !25
  %68 = load ptr, ptr %5, align 8, !tbaa !7
  %69 = getelementptr inbounds nuw %struct.ossl_cc_newreno_st, ptr %68, i32 0, i32 7
  %70 = load i64, ptr %69, align 8, !tbaa !44
  %71 = load ptr, ptr %5, align 8, !tbaa !7
  %72 = getelementptr inbounds nuw %struct.ossl_cc_newreno_st, ptr %71, i32 0, i32 9
  %73 = load i64, ptr %72, align 8, !tbaa !23
  %74 = add i64 %73, %70
  store i64 %74, ptr %72, align 8, !tbaa !23
  br label %75

75:                                               ; preds = %60, %45
  %76 = load ptr, ptr %5, align 8, !tbaa !7
  %77 = getelementptr inbounds nuw %struct.ossl_cc_newreno_st, ptr %76, i32 0, i32 15
  store i32 0, ptr %77, align 8, !tbaa !30
  br label %78

78:                                               ; preds = %75, %35
  br label %79

79:                                               ; preds = %78, %26
  br label %80

80:                                               ; preds = %79, %17
  %81 = load ptr, ptr %5, align 8, !tbaa !7
  call void @newreno_update_diag(ptr noundef %81)
  call void @llvm.lifetime.end.p0(i64 8, ptr %5) #6
  ret i32 1
}