; Function Attrs: mustprogress nofree norecurse nosync nounwind willreturn memory(write, argmem: readwrite, inaccessiblemem: none) uwtable
define internal noundef i32 @newreno_on_data_acked(ptr noundef captures(none) %0, ptr noundef readonly captures(none) %1) #3 {
  %3 = getelementptr inbounds nuw i8, ptr %1, i64 8
  %4 = load i64, ptr %3, align 8, !tbaa !39
  %5 = getelementptr inbounds nuw i8, ptr %0, i64 56
  %6 = load i64, ptr %5, align 8, !tbaa !23
  %7 = sub i64 %6, %4
  store i64 %7, ptr %5, align 8, !tbaa !23
  %8 = getelementptr inbounds nuw i8, ptr %0, i64 64
  %9 = load i64, ptr %8, align 8, !tbaa !17
  %.not.i = icmp ult i64 %7, %9
  br i1 %.not.i, label %10, label %newreno_is_cong_limited.exit.thread

10:                                               ; preds = %2
  %11 = sub nuw i64 %9, %7
  %12 = getelementptr inbounds nuw i8, ptr %0, i64 72
  %13 = load i64, ptr %12, align 8, !tbaa !26
  %14 = icmp uge i64 %9, %13
  %15 = lshr i64 %9, 1
  %.not12.i = icmp ugt i64 %11, %15
  %or.cond.i = select i1 %14, i1 true, i1 %.not12.i
  br i1 %or.cond.i, label %newreno_is_cong_limited.exit, label %newreno_is_cong_limited.exit.thread

newreno_is_cong_limited.exit:                     ; preds = %10
  %16 = getelementptr inbounds nuw i8, ptr %0, i64 48
  %17 = load i64, ptr %16, align 8, !tbaa !14
  %18 = mul i64 %17, 3
  %.not28 = icmp ugt i64 %11, %18
  br i1 %.not28, label %37, label %newreno_is_cong_limited.exit.thread

newreno_is_cong_limited.exit.thread:              ; preds = %10, %2, %newreno_is_cong_limited.exit
  %19 = load i64, ptr %1, align 8
  %20 = getelementptr i8, ptr %0, i64 88
  %.val = load i64, ptr %20, align 8
  %.not = icmp ugt i64 %19, %.val
  br i1 %.not, label %21, label %37

21:                                               ; preds = %newreno_is_cong_limited.exit.thread
  %22 = getelementptr inbounds nuw i8, ptr %0, i64 72
  %23 = load i64, ptr %22, align 8, !tbaa !26
  %24 = icmp ult i64 %9, %23
  br i1 %24, label %25, label %27

25:                                               ; preds = %21
  %26 = add i64 %9, %4
  br label %.sink.split.sink.split

27:                                               ; preds = %21
  %28 = getelementptr inbounds nuw i8, ptr %0, i64 80
  %29 = load i64, ptr %28, align 8, !tbaa !31
  %30 = add i64 %29, %4
  store i64 %30, ptr %28, align 8, !tbaa !31
  %.not24 = icmp ult i64 %30, %9
  br i1 %.not24, label %.sink.split, label %31

31:                                               ; preds = %27
  %32 = sub nuw i64 %30, %9
  store i64 %32, ptr %28, align 8, !tbaa !31
  %33 = getelementptr inbounds nuw i8, ptr %0, i64 48
  %34 = load i64, ptr %33, align 8, !tbaa !14
  %35 = add i64 %34, %9
  br label %.sink.split.sink.split

.sink.split.sink.split:                           ; preds = %25, %31
  %.sink = phi i64 [ %35, %31 ], [ %26, %25 ]
  store i64 %.sink, ptr %8, align 8, !tbaa !17
  br label %.sink.split

.sink.split:                                      ; preds = %.sink.split.sink.split, %27
  %36 = getelementptr inbounds nuw i8, ptr %0, i64 112
  store i32 0, ptr %36, align 8, !tbaa !25
  br label %37

37:                                               ; preds = %.sink.split, %newreno_is_cong_limited.exit.thread, %newreno_is_cong_limited.exit
  %38 = getelementptr inbounds nuw i8, ptr %0, i64 120
  %39 = load ptr, ptr %38, align 8, !tbaa !18
  %.not.i25 = icmp eq ptr %39, null
  br i1 %.not.i25, label %43, label %40

40:                                               ; preds = %37
  %41 = getelementptr inbounds nuw i8, ptr %0, i64 48
  %42 = load i64, ptr %41, align 8, !tbaa !14
  store i64 %42, ptr %39, align 8, !tbaa !19
  br label %43

43:                                               ; preds = %40, %37
  %44 = getelementptr inbounds nuw i8, ptr %0, i64 128
  %45 = load ptr, ptr %44, align 8, !tbaa !20
  %.not23.i = icmp eq ptr %45, null
  br i1 %.not23.i, label %48, label %46

46:                                               ; preds = %43
  %47 = load i64, ptr %8, align 8, !tbaa !17
  store i64 %47, ptr %45, align 8, !tbaa !19
  br label %48

48:                                               ; preds = %46, %43
  %49 = getelementptr inbounds nuw i8, ptr %0, i64 136
  %50 = load ptr, ptr %49, align 8, !tbaa !21
  %.not24.i = icmp eq ptr %50, null
  br i1 %.not24.i, label %54, label %51

51:                                               ; preds = %48
  %52 = getelementptr inbounds nuw i8, ptr %0, i64 24
  %53 = load i64, ptr %52, align 8, !tbaa !16
  store i64 %53, ptr %50, align 8, !tbaa !19
  br label %54

54:                                               ; preds = %51, %48
  %55 = getelementptr inbounds nuw i8, ptr %0, i64 144
  %56 = load ptr, ptr %55, align 8, !tbaa !22
  %.not25.i = icmp eq ptr %56, null
  br i1 %.not25.i, label %59, label %57

57:                                               ; preds = %54
  %58 = load i64, ptr %5, align 8, !tbaa !23
  store i64 %58, ptr %56, align 8, !tbaa !19
  br label %59

59:                                               ; preds = %57, %54
  %60 = getelementptr inbounds nuw i8, ptr %0, i64 152
  %61 = load ptr, ptr %60, align 8, !tbaa !24
  %.not26.i = icmp eq ptr %61, null
  br i1 %.not26.i, label %newreno_update_diag.exit, label %62

62:                                               ; preds = %59
  %63 = getelementptr inbounds nuw i8, ptr %0, i64 112
  %64 = load i32, ptr %63, align 8, !tbaa !25
  %.not27.i = icmp eq i32 %64, 0
  br i1 %.not27.i, label %65, label %.sink.split.i

65:                                               ; preds = %62
  %66 = load i64, ptr %8, align 8, !tbaa !17
  %67 = getelementptr inbounds nuw i8, ptr %0, i64 72
  %68 = load i64, ptr %67, align 8, !tbaa !26
  %69 = icmp ult i64 %66, %68
  %..i = select i1 %69, i32 83, i32 65
  br label %.sink.split.i

.sink.split.i:                                    ; preds = %65, %62
  %.sink.i = phi i32 [ 82, %62 ], [ %..i, %65 ]
  store i32 %.sink.i, ptr %61, align 4, !tbaa !27
  br label %newreno_update_diag.exit

newreno_update_diag.exit:                         ; preds = %59, %.sink.split.i
  ret i32 1
}